target datalayout = "e-m:e-p270:32:32-p271:32:32-p272:64:64-i64:64-i128:128-f80:128-n8:16:32:64-S128"
target triple = "x86_64-unknown-linux-gnu"

%"class.std::shared_ptr" = type { %"class.std::__shared_ptr" }
%"class.std::__shared_ptr" = type { ptr, %"class.std::__shared_count" }
%"class.std::__shared_count" = type { ptr }
%"class.std::optional" = type { %"struct.std::_Optional_base" }
%"struct.std::_Optional_base" = type { %"struct.std::_Optional_payload" }
%"struct.std::_Optional_payload" = type { %"struct.std::_Optional_payload_base.base", [7 x i8] }
%"struct.std::_Optional_payload_base.base" = type <{ %"union.std::_Optional_payload_base<unsigned long>::_Storage", i8 }>
%"union.std::_Optional_payload_base<unsigned long>::_Storage" = type { i64 }
%"class.node::MemoryRetainer" = type { ptr }
%"class.node::(anonymous namespace)::EntryImpl" = type { %"class.node::DataQueue::Entry" }
%"class.node::DataQueue::Entry" = type { %"class.node::MemoryRetainer" }
%"class.node::(anonymous namespace)::DataQueueEntry" = type { %"class.node::(anonymous namespace)::EntryImpl", %"class.std::shared_ptr" }

; Function Attrs: mustprogress nounwind uwtable
define linkonce_odr dso_local noundef ptr @_ZNKSt12__shared_ptrIN4node9DataQueueELN9__gnu_cxx12_Lock_policyE2EE3getEv(ptr noundef nonnull align 8 dereferenceable(16) %this) #4 comdat align 2 {
entry:
  %this.addr = alloca ptr, align 8
  store ptr %this, ptr %this.addr, align 8
  %this1 = load ptr, ptr %this.addr, align 8
  %_M_ptr = getelementptr inbounds %"class.std::__shared_ptr", ptr %this1, i32 0, i32 0
  %0 = load ptr, ptr %_M_ptr, align 8
  ret ptr %0
}

; Function Attrs: mustprogress nounwind uwtable
define linkonce_odr dso_local noundef ptr @_ZNKSt19__shared_ptr_accessIN4node9DataQueueELN9__gnu_cxx12_Lock_policyE2ELb0ELb0EE6_M_getEv(ptr noundef nonnull align 1 dereferenceable(1) %this) #4 comdat align 2 {
entry:
  %this.addr = alloca ptr, align 8
  store ptr %this, ptr %this.addr, align 8
  %this1 = load ptr, ptr %this.addr, align 8
  %call = call noundef ptr @_ZNKSt12__shared_ptrIN4node9DataQueueELN9__gnu_cxx12_Lock_policyE2EE3getEv(ptr noundef nonnull align 8 dereferenceable(16) %this1) #3
  ret ptr %call
}

; Function Attrs: mustprogress nounwind uwtable
define linkonce_odr dso_local noundef ptr @_ZNKSt19__shared_ptr_accessIN4node9DataQueueELN9__gnu_cxx12_Lock_policyE2ELb0ELb0EEptEv(ptr noundef nonnull align 1 dereferenceable(1) %this) #4 comdat align 2 {
entry:
  %this.addr = alloca ptr, align 8
  store ptr %this, ptr %this.addr, align 8
  %this1 = load ptr, ptr %this.addr, align 8
  %call = call noundef ptr @_ZNKSt19__shared_ptr_accessIN4node9DataQueueELN9__gnu_cxx12_Lock_policyE2ELb0ELb0EE6_M_getEv(ptr noundef nonnull align 1 dereferenceable(1) %this1) #3
  ret ptr %call
}

; Function Attrs: mustprogress nounwind uwtable
define internal { i64, i8 } @_ZNK4node12_GLOBAL__N_114DataQueueEntry4sizeEv(ptr noundef nonnull align 8 dereferenceable(24) %this) unnamed_addr #4 align 2 {
entry:
  %retval = alloca %"class.std::optional", align 8
  %this.addr = alloca ptr, align 8
  store ptr %this, ptr %this.addr, align 8
  %this1 = load ptr, ptr %this.addr, align 8
  %data_queue_ = getelementptr inbounds %"class.node::(anonymous namespace)::DataQueueEntry", ptr %this1, i32 0, i32 1
  %call = call noundef ptr @_ZNKSt19__shared_ptr_accessIN4node9DataQueueELN9__gnu_cxx12_Lock_policyE2ELb0ELb0EEptEv(ptr noundef nonnull align 1 dereferenceable(1) %data_queue_) #3
  %vtable = load ptr, ptr %call, align 8
  %vfn = getelementptr inbounds ptr, ptr %vtable, i64 12
  %0 = load ptr, ptr %vfn, align 8
  %call2 = call { i64, i8 } %0(ptr noundef nonnull align 8 dereferenceable(8) %call)
  %coerce.dive = getelementptr inbounds %"class.std::optional", ptr %retval, i32 0, i32 0
  %coerce.dive3 = getelementptr inbounds %"struct.std::_Optional_base", ptr %coerce.dive, i32 0, i32 0
  %1 = getelementptr inbounds { i64, i8 }, ptr %coerce.dive3, i32 0, i32 0
  %2 = extractvalue { i64, i8 } %call2, 0
  store i64 %2, ptr %1, align 8
  %3 = getelementptr inbounds { i64, i8 }, ptr %coerce.dive3, i32 0, i32 1
  %4 = extractvalue { i64, i8 } %call2, 1
  store i8 %4, ptr %3, align 8
  %coerce.dive4 = getelementptr inbounds %"class.std::optional", ptr %retval, i32 0, i32 0
  %coerce.dive5 = getelementptr inbounds %"struct.std::_Optional_base", ptr %coerce.dive4, i32 0, i32 0
  %5 = load { i64, i8 }, ptr %coerce.dive5, align 8
  ret { i64, i8 } %5
}