; Function Attrs: mustprogress nounwind uwtable
define internal { i64, i8 } @_ZNK4node12_GLOBAL__N_114DataQueueEntry4sizeEv(ptr nocapture noundef nonnull readonly align 8 dereferenceable(24) %this) unnamed_addr #3 align 2 {
entry:
  %data_queue_ = getelementptr inbounds i8, ptr %this, i64 8
  %0 = load ptr, ptr %data_queue_, align 8
  %vtable = load ptr, ptr %0, align 8
  %vfn = getelementptr inbounds i8, ptr %vtable, i64 96
  %1 = load ptr, ptr %vfn, align 8
  %call2 = tail call { i64, i8 } %1(ptr noundef nonnull align 8 dereferenceable(8) %0) #20
  ret { i64, i8 } %call2
}